target datalayout = "e-m:e-p270:32:32-p271:32:32-p272:64:64-i64:64-i128:128-f80:128-n8:16:32:64-S128"
target triple = "x86_64-pc-linux-gnu"

@g_ascii_table = external constant ptr, align 8

; Function Attrs: null_pointer_is_valid sspstrong uwtable
define internal zeroext i1 @is_rosheaderfield(ptr noundef %0, ptr noundef %1, i32 noundef %2) #0 {
  %4 = alloca i1, align 1
  %5 = alloca ptr, align 8
  %6 = alloca ptr, align 8
  %7 = alloca i32, align 4
  %8 = alloca i32, align 4
  %9 = alloca i32, align 4
  %10 = alloca i32, align 4
  %11 = alloca i32, align 4
  %12 = alloca i8, align 1
  store ptr %0, ptr %5, align 8
  store ptr %1, ptr %6, align 8
  store i32 %2, ptr %7, align 4
  call void @llvm.lifetime.start.p0(i64 4, ptr %8) #3
  %13 = load ptr, ptr %5, align 8
  %14 = load i32, ptr %7, align 4
  %15 = call i32 @tvb_reported_length_remaining(ptr noundef %13, i32 noundef %14)
  store i32 %15, ptr %8, align 4
  call void @llvm.lifetime.start.p0(i64 4, ptr %9) #3
  store i32 0, ptr %9, align 4
  call void @llvm.lifetime.start.p0(i64 4, ptr %10) #3
  %16 = load i32, ptr %8, align 4
  %17 = icmp slt i32 %16, 4
  br i1 %17, label %18, label %19

18:                                               ; preds = %3
  store i1 false, ptr %4, align 1
  store i32 1, ptr %11, align 4
  br label %61

19:                                               ; preds = %3
  %20 = load ptr, ptr %5, align 8
  %21 = load i32, ptr %7, align 4
  %22 = call i32 @tvb_get_letohl(ptr noundef %20, i32 noundef %21)
  store i32 %22, ptr %9, align 4
  %23 = load i32, ptr %8, align 4
  %24 = load i32, ptr %9, align 4
  %25 = add i32 %24, 4
  %26 = icmp ult i32 %23, %25
  br i1 %26, label %27, label %28

27:                                               ; preds = %19
  store i1 false, ptr %4, align 1
  store i32 1, ptr %11, align 4
  br label %61

28:                                               ; preds = %19
  store i32 0, ptr %10, align 4
  br label %29

29:                                               ; preds = %57, %28
  %30 = load i32, ptr %10, align 4
  %31 = load i32, ptr %9, align 4
  %32 = icmp ult i32 %30, %31
  br i1 %32, label %33, label %60

33:                                               ; preds = %29
  call void @llvm.lifetime.start.p0(i64 1, ptr %12) #3
  %34 = load ptr, ptr %5, align 8
  %35 = load i32, ptr %7, align 4
  %36 = add i32 %35, 4
  %37 = load i32, ptr %10, align 4
  %38 = add i32 %36, %37
  %39 = call zeroext i8 @tvb_get_uint8(ptr noundef %34, i32 noundef %38)
  store i8 %39, ptr %12, align 1
  %40 = load ptr, ptr @g_ascii_table, align 8
  %41 = load i8, ptr %12, align 1
  %42 = zext i8 %41 to i64
  %43 = getelementptr i16, ptr %40, i64 %42
  %44 = load i16, ptr %43, align 2
  %45 = zext i16 %44 to i32
  %46 = and i32 %45, 1
  %47 = icmp ne i32 %46, 0
  br i1 %47, label %48, label %52

48:                                               ; preds = %33
  %49 = load i8, ptr %12, align 1
  %50 = sext i8 %49 to i32
  %51 = icmp eq i32 0, %50
  br i1 %51, label %52, label %53

52:                                               ; preds = %48, %33
  store i1 false, ptr %4, align 1
  store i32 1, ptr %11, align 4
  br label %54

53:                                               ; preds = %48
  store i32 0, ptr %11, align 4
  br label %54

54:                                               ; preds = %53, %52
  call void @llvm.lifetime.end.p0(i64 1, ptr %12) #3
  %55 = load i32, ptr %11, align 4
  switch i32 %55, label %61 [
    i32 0, label %56
  ]

56:                                               ; preds = %54
  br label %57

57:                                               ; preds = %56
  %58 = load i32, ptr %10, align 4
  %59 = add i32 %58, 1
  store i32 %59, ptr %10, align 4
  br label %29, !llvm.loop !11

60:                                               ; preds = %29
  store i1 true, ptr %4, align 1
  store i32 1, ptr %11, align 4
  br label %61

61:                                               ; preds = %60, %54, %27, %18
  call void @llvm.lifetime.end.p0(i64 4, ptr %10) #3
  call void @llvm.lifetime.end.p0(i64 4, ptr %9) #3
  call void @llvm.lifetime.end.p0(i64 4, ptr %8) #3
  %62 = load i1, ptr %4, align 1
  ret i1 %62
}

; Function Attrs: null_pointer_is_valid sspstrong uwtable
define internal zeroext i1 @is_rosconnection_header(ptr noundef %0, ptr noundef %1, i32 noundef %2) #0 {
  %4 = alloca i1, align 1
  %5 = alloca ptr, align 8
  %6 = alloca ptr, align 8
  %7 = alloca i32, align 4
  %8 = alloca i32, align 4
  %9 = alloca i32, align 4
  %10 = alloca i32, align 4
  store ptr %0, ptr %5, align 8
  store ptr %1, ptr %6, align 8
  store i32 %2, ptr %7, align 4
  call void @llvm.lifetime.start.p0(i64 4, ptr %8) #3
  %11 = load ptr, ptr %5, align 8
  %12 = load i32, ptr %7, align 4
  %13 = call i32 @tvb_reported_length_remaining(ptr noundef %11, i32 noundef %12)
  store i32 %13, ptr %8, align 4
  call void @llvm.lifetime.start.p0(i64 4, ptr %9) #3
  store i32 0, ptr %9, align 4
  %14 = load i32, ptr %8, align 4
  %15 = icmp slt i32 %14, 9
  br i1 %15, label %16, label %17

16:                                               ; preds = %3
  store i1 false, ptr %4, align 1
  store i32 1, ptr %10, align 4
  br label %32

17:                                               ; preds = %3
  %18 = load ptr, ptr %5, align 8
  %19 = load i32, ptr %7, align 4
  %20 = call i32 @tvb_get_letohl(ptr noundef %18, i32 noundef %19)
  store i32 %20, ptr %9, align 4
  %21 = load i32, ptr %9, align 4
  %22 = icmp ult i32 %21, 5
  br i1 %22, label %23, label %24

23:                                               ; preds = %17
  store i1 false, ptr %4, align 1
  store i32 1, ptr %10, align 4
  br label %32

24:                                               ; preds = %17
  %25 = load ptr, ptr %5, align 8
  %26 = load ptr, ptr %6, align 8
  %27 = load i32, ptr %7, align 4
  %28 = add i32 %27, 4
  %29 = call zeroext i1 @is_rosheaderfield(ptr noundef %25, ptr noundef %26, i32 noundef %28)
  br i1 %29, label %31, label %30

30:                                               ; preds = %24
  store i1 false, ptr %4, align 1
  store i32 1, ptr %10, align 4
  br label %32

31:                                               ; preds = %24
  store i1 true, ptr %4, align 1
  store i32 1, ptr %10, align 4
  br label %32

32:                                               ; preds = %31, %30, %23, %16
  call void @llvm.lifetime.end.p0(i64 4, ptr %9) #3
  call void @llvm.lifetime.end.p0(i64 4, ptr %8) #3
  %33 = load i1, ptr %4, align 1
  ret i1 %33
}