; Function Attrs: null_pointer_is_valid sspstrong uwtable
define internal fastcc noundef zeroext i1 @is_rosconnection_header(ptr noundef %0, i32 noundef %1) unnamed_addr #0 {
  %3 = tail call i32 @tvb_reported_length_remaining(ptr noundef %0, i32 noundef %1)
  %4 = icmp slt i32 %3, 9
  br i1 %4, label %is_rosheaderfield.exit, label %5

5:                                                ; preds = %2
  %6 = tail call i32 @tvb_get_letohl(ptr noundef %0, i32 noundef %1)
  %7 = icmp ult i32 %6, 5
  br i1 %7, label %is_rosheaderfield.exit, label %8

8:                                                ; preds = %5
  %9 = add i32 %1, 4
  %10 = tail call i32 @tvb_reported_length_remaining(ptr noundef %0, i32 noundef %9)
  %11 = icmp slt i32 %10, 4
  br i1 %11, label %is_rosheaderfield.exit, label %12

12:                                               ; preds = %8
  %13 = tail call i32 @tvb_get_letohl(ptr noundef %0, i32 noundef %9)
  %14 = add i32 %13, 4
  %15 = icmp ult i32 %10, %14
  br i1 %15, label %is_rosheaderfield.exit, label %.preheader.i

.preheader.i:                                     ; preds = %12
  %.not.i = icmp eq i32 %13, 0
  br i1 %.not.i, label %is_rosheaderfield.exit, label %.lr.ph.i

.lr.ph.i:                                         ; preds = %.preheader.i
  %16 = add i32 %1, 8
  %17 = load ptr, ptr @g_ascii_table, align 8
  br label %18

18:                                               ; preds = %18, %.lr.ph.i
  %.0191.i = phi i32 [ 0, %.lr.ph.i ], [ %27, %18 ]
  %19 = add i32 %16, %.0191.i
  %20 = tail call zeroext i8 @tvb_get_uint8(ptr noundef %0, i32 noundef %19)
  %21 = zext i8 %20 to i64
  %22 = getelementptr i16, ptr %17, i64 %21
  %23 = load i16, ptr %22, align 2
  %24 = and i16 %23, 1
  %25 = icmp ne i16 %24, 0
  %26 = icmp ne i8 %20, 0
  %or.cond.not.i = and i1 %26, %25
  %27 = add nuw i32 %.0191.i, 1
  %exitcond.not.i = icmp ne i32 %27, %13
  %or.cond.not = select i1 %or.cond.not.i, i1 %exitcond.not.i, i1 false
  br i1 %or.cond.not, label %18, label %is_rosheaderfield.exit, !llvm.loop !10

is_rosheaderfield.exit:                           ; preds = %18, %.preheader.i, %12, %8, %5, %2
  %.0 = phi i1 [ false, %2 ], [ false, %5 ], [ false, %8 ], [ false, %12 ], [ true, %.preheader.i ], [ %or.cond.not.i, %18 ]
  ret i1 %.0
}